(lp0
NaF30919268.0
aF14945247.0
aF10088108.0
aF7515520.0
aF5937025.0
aF4944181.0
aF4233801.0
aF3678495.0
aF3261975.0
aF2944776.0
aF2662717.0
aF2419869.0
aF2233032.0
aF2091855.0
aF1983830.0
aF1869788.0
aF1700081.0
aF1611550.0
aF1535802.0
aF1456511.0
aF1383127.0
aF1324170.0
aF1257364.0
aF1208856.0
aF1172684.0
aF1151839.0
aF1085795.0
aF1058533.0
aF1010242.0
aF984666.0
aF949134.0
aF911561.0
aF895076.0
aF862115.0
aF834568.0
aF817438.0
aF795534.0
aF776570.0
aF754615.0
aF735781.0
aF730410.0
aF705522.0
aF695194.0
aF688065.0
aF660415.0
aF650962.0
aF646963.0
aF630522.0
aF609331.0
aF599818.0
aF597117.0
aF574541.0
aF566758.0
aF569026.0
aF548622.0
aF542508.0
aF535800.0
aF523323.0
aF518328.0
aF516309.0
aF509962.0
aF490516.0
aF489923.0
aF632105.0
aF648288.0
aF646620.0
aF621007.0
aF621475.0
aF612445.0
aF604843.0
aF600199.0
aF584880.0
aF576053.0
aF571471.0
aF573291.0
aF558566.0
aF546565.0
aF551312.0
aF537875.0
aF531223.0
aF533305.0
aF518577.0
aF512016.0
aF512199.0
aF523881.0
aF512851.0
aF501186.0
aF500626.0
aF491277.0
aF487539.0
aF478567.0
aF475189.0
aF469837.0
aF466428.0
aF472147.0
aF461056.0
aF465554.0
aF455239.0
aF451604.0
aF448632.0
aF446763.0
aF444794.0
aF436600.0
aF435766.0
aF431188.0
aF423935.0
aF449157.0
aF420300.0
aF416742.0
aF414826.0
aF417126.0
aF411275.0
aF411888.0
aF405492.0
aF401632.0
aF403583.0
aF398419.0
aF392214.0
aF391309.0
aF396335.0
aF386066.0
aF379809.0
aF384073.0
aF378945.0
aF380311.0
aF380429.0
aF375337.0
aF440415.0
aF461770.0
aF459868.0
aF458520.0
aF454302.0
aF452731.0
aF443931.0
aF447012.0
aF446419.0
aF438932.0
aF441546.0
aF445764.0
aF435110.0
aF438955.0
aF433219.0
aF424286.0
aF424497.0
aF420454.0
aF421394.0
aF426197.0
aF419484.0
aF419459.0
aF411941.0
aF413351.0
aF411827.0
aF410061.0
aF402754.0
aF402470.0
aF404341.0
aF408738.0
aF407459.0
aF400780.0
aF400969.0
aF407395.0
aF390133.0
aF391024.0
aF387385.0
aF388091.0
aF389826.0
aF388831.0
aF388365.0
aF389044.0
aF383511.0
aF383961.0
aF397059.0
aF383038.0
aF382959.0
aF381367.0
aF372634.0
aF377495.0
aF374976.0
aF370842.0
aF363344.0
aF367743.0
aF364474.0
aF367562.0
aF369330.0
aF365335.0
aF365624.0
aF378745.0
aF368645.0
aF357802.0
aF361870.0
aF357778.0
aF384719.0
aF399885.0
aF405702.0
aF403619.0
aF404636.0
aF398994.0
aF395507.0
aF397216.0
aF400564.0
aF389714.0
aF393450.0
aF396148.0
aF392837.0
aF389691.0
aF387172.0
aF388940.0
aF388960.0
aF378090.0
aF382131.0
aF381830.0
aF383559.0
aF394901.0
aF379170.0
aF379139.0
aF378972.0
aF383523.0
aF376048.0
aF375076.0
aF379933.0
aF383720.0
aF378671.0
aF377040.0
aF372024.0
aF372943.0
aF376429.0
aF372908.0
aF370719.0
aF368601.0
aF369645.0
aF373859.0
aF373574.0
aF367929.0
aF367096.0
aF366222.0
aF364937.0
aF366716.0
aF365381.0
aF360603.0
aF360300.0
aF359602.0
aF363529.0
aF355560.0
aF355389.0
aF348992.0
aF357622.0
aF355927.0
aF356710.0
aF361348.0
aF357552.0
aF354505.0
aF353676.0
aF353449.0
aF354845.0
aF355014.0
aF360694.0
a.