(lp0
NaF0.8049021136374044
aF1.6739648835374845
aF2.5397014942335816
aF3.3286566712390604
aF3.364162974751602
aF5.100815941552857
aF5.868139576977508
aF6.855666211782469
aF7.721231902612688
aF8.523427911342141
aF9.462300580630867
aF10.34217705458876
aF11.125417731647143
aF11.986812172112264
aF12.69246443281664
aF13.496067917398227
aF14.430487937066566
aF15.515919934138092
aF16.20323594760748
aF16.85034955242209
aF17.526326993641636
aF18.61149812310749
aF19.484157048482498
aF19.86240282393872
aF20.460257148089045
aF20.496616968063066
aF22.248402592830956
aF22.787218622877266
aF23.568376486895733
aF24.578461006656177
aF25.221848465121337
aF25.145574961620998
aF26.616615939578406
aF27.20585242836645
aF27.41763304975385
aF28.021370688747922
aF28.764519428577994
aF29.10686657145914
aF29.993116572474918
aF30.801554581412464
aF31.288655308807428
aF31.561692618878276
aF32.167648170187825
aF32.99239660008858
aF33.4181140378987
aF33.28142336639983
aF34.016836966301604
aF32.540878442508074
aF35.001770485750804
aF34.96177550302008
aF35.69402872260015
aF36.21316726905481
aF37.207833949294
aF37.26167726183209
aF38.17570255396517
aF38.045712687429315
aF38.99873475315221
aF38.10699919304496
aF39.259579487629956
aF40.05014369747361
aF40.41254278886521
aF40.373559083620734
aF40.081057968554326
aF40.329840957798226
aF34.585807107777434
aF35.71256774149361
aF35.23752242092488
aF36.06860851870853
aF35.96784373688658
aF37.334045358807145
aF36.73349888749948
aF37.32168622597337
aF37.41060901383524
aF37.58837699668996
aF37.651369411708075
aF36.057696241849364
aF38.50613709302719
aF38.718918333565384
aF39.15663721244587
aF39.20619822800356
aF39.4169981825684
aF39.853593755473675
aF39.77960945620766
aF39.4957455941019
aF40.494798256485595
aF40.82293416670201
aF39.797573502520315
aF39.62706540256746
aF40.3103544911337
aF41.98209223605506
aF42.07058522941208
aF42.4904097216799
aF42.59729455575298
aF42.32285251434814
aF42.628346800016345
aF42.28309811089974
aF43.70228042605204
aF42.856671232876714
aF42.4130769282911
aF42.295960063676404
aF43.7995617995618
aF43.33889060124468
aF43.33153739612188
aF42.38334219554902
aF43.812749450334
aF43.19990334161834
aF44.78888200914092
aF41.903650202082105
aF43.37855085324468
aF44.302887406715094
aF43.67635069105123
aF42.63749697616022
aF43.224075877838345
aF44.869659376120474
aF44.01941699761157
aF44.3624104449305
aF44.17854785129015
aF43.846060593319805
aF43.26636817812505
aF44.90346980515985
aF45.061765648461886
aF44.98078077430439
aF43.995584321528895
aF44.16482736958754
aF42.909132055286776
aF44.74724221652489
aF44.08299369092952
aF43.93503561736175
aF41.31459001185214
aF42.66744404098263
aF41.71938925190025
aF43.872192286522626
aF42.61136403104049
aF43.73863382172017
aF43.01429209775547
aF42.45682103477523
aF43.48935194195001
aF43.15997351249189
aF43.5025046495055
aF43.279835376714104
aF43.27429784703059
aF43.268462525196995
aF43.11313532899474
aF42.63604430498346
aF42.945651092160126
aF43.15282969420268
aF42.63430123022727
aF42.765720847102564
aF42.997000484457836
aF43.83300641690251
aF42.26310616985421
aF42.31440918097531
aF43.096803077421114
aF42.849480737821395
aF40.75951065714733
aF41.99392615411462
aF43.63370990237099
aF43.64329681903626
aF43.95586902612593
aF41.03604794149956
aF43.36968109070997
aF43.427173415138604
aF43.20795784908813
aF43.35480607666857
aF43.53610280994841
aF42.663225648088805
aF44.9504057126642
aF43.571118198403965
aF42.05602250310022
aF44.023133506647014
aF42.353649126132105
aF43.30379777497102
aF43.55564991611965
aF43.14940745261518
aF41.60980216126351
aF42.090678541878276
aF42.272528586146905
aF42.054750510807615
aF41.55660418084912
aF41.472456967118035
aF41.70381775040657
aF41.75237802904682
aF41.442653570139385
aF41.30136371437247
aF41.06365217391305
aF40.3505171924575
aF40.71866255385056
aF40.85438655484133
aF39.40768872261901
aF41.25615835003693
aF40.84785220002612
aF39.73880791337207
aF42.28166948788902
aF41.268130853449414
aF40.45944888635989
aF40.6353641033634
aF40.864525609417605
aF38.74253269268873
aF40.52640305709382
aF40.49152257196107
aF41.257382491700156
aF38.83896637554856
aF40.81268263410561
aF40.771727939739094
aF40.9796086778551
aF39.2551460208915
aF37.88825005828194
aF39.64878574257426
aF40.33920115529796
aF40.19460459499131
aF37.826063826571634
aF37.866238202872765
aF36.253872605966144
aF40.76482161936779
aF40.14148471055425
aF39.15504450806464
aF38.54076544738358
aF39.42668468792041
aF39.019163252452316
aF38.00608017201846
aF38.638224033592685
aF37.74653953928893
aF38.23892783152337
aF38.24909604951479
aF38.12209038429317
aF37.97689973294489
aF38.01566297268398
aF37.51490805748581
aF37.79978493584322
aF37.06446071462421
aF37.58295842918666
aF37.04525957129367
aF36.942788654559195
aF36.863238824655724
aF36.85726739905163
aF36.20091065302037
aF36.42047485171798
aF36.48865173781199
aF36.80599288829804
aF35.23603414875884
aF35.502136230815054
aF35.206790323170544
aF35.94253398473739
aF35.22542145308071
aF34.79902784111765
aF35.73296251138593
aF35.3863868364424
aF36.21568247261572
aF36.884317129459056
aF35.12171492079886
aF35.57773475369661
aF36.69063423558662
aF35.97177252449064
aF35.41091913366799
aF35.5563043929161
aF35.11057990410217
a.