(lp0
NaF29321793.0
aF14875896.5
aF9745146.0
aF7460903.5
aF6060133.0
aF4894422.5
aF4347881.0
aF3841571.5
aF3305163.0
aF3023452.5
aF2544339.0
aF2556920.0
aF2410671.5
aF2130250.0
aF1927945.5
aF1997536.0
aF1886534.0
aF2071430.5
aF1550477.0
aF1676550.5
aF1580375.5
aF1388817.5
aF1556283.5
aF1306229.5
aF1292026.5
aF1148793.5
aF1303743.0
aF1389650.0
aF1225891.5
aF1061138.5
aF1125177.0
aF1088784.5
aF1108908.0
aF1100318.0
aF1019245.0
aF1013391.0
aF1057807.5
aF982171.0
aF922768.5
aF911320.5
aF711684.5
aF951032.5
aF815781.5
aF848838.5
aF793381.5
aF832400.0
aF839752.0
aF826129.5
aF754321.0
aF824073.5
aF761986.5
aF758094.5
aF783428.0
aF755593.5
aF695664.5
aF635066.0
aF691500.5
aF662491.5
aF657196.0
aF653709.0
aF741819.5
aF707117.0
aF641681.5
aF648502.0
aF660383.0
aF701811.0
aF610461.0
aF669807.5
aF610457.5
aF729328.0
aF633089.5
aF598181.5
aF685374.5
aF638339.0
aF628142.0
aF680406.0
aF599873.5
aF606458.0
aF635301.0
aF670264.0
aF557630.5
aF560668.5
aF569196.0
aF566110.0
aF638544.5
aF660987.0
aF542687.5
aF604632.0
aF535043.5
aF551574.5
aF511223.0
aF528577.5
aF500604.5
aF585458.5
aF568122.5
aF520348.5
aF537507.0
aF540904.5
aF573123.0
aF527882.5
aF547585.0
aF646262.0
aF548515.5
aF559635.5
aF492351.0
aF572860.5
aF507505.5
aF520125.5
aF534111.5
aF538954.5
aF620295.5
aF509269.5
aF512556.5
aF551444.5
aF498033.0
aF489396.0
aF498660.0
aF550700.5
aF479571.5
aF475763.0
aF542325.0
aF483506.5
aF498524.5
aF525090.5
aF473428.0
aF505200.0
aF503706.0
aF502289.0
aF487804.0
aF481267.5
aF490669.5
aF481584.5
aF496682.5
aF476696.0
aF476685.0
aF457955.0
aF461430.5
aF460734.0
aF448369.5
aF468269.5
aF431843.0
aF458485.5
aF414483.5
aF444341.5
aF472579.5
aF440412.0
aF442391.0
aF424116.0
aF419019.0
aF425616.0
aF430792.0
aF409703.5
aF438957.0
aF421325.0
aF437739.5
aF417201.5
aF405859.0
aF427443.5
aF430302.5
aF413385.0
aF408015.0
aF409045.5
aF420977.0
aF408096.0
aF396861.5
aF407470.0
aF436621.0
aF410240.5
aF409101.5
aF388462.5
aF397178.0
aF389902.5
aF407641.0
aF403158.5
aF398505.5
aF384989.5
aF388457.5
aF377479.0
aF393765.0
aF385282.0
aF392457.5
aF375030.5
aF391840.0
aF374578.0
aF374340.5
aF377774.0
aF374851.5
aF380624.0
aF374228.0
aF364252.5
aF358077.0
aF349633.0
aF386911.5
aF391139.0
aF389506.0
aF378931.0
aF379670.0
aF382329.5
aF367604.5
aF373970.0
aF370815.0
aF384805.5
aF375870.0
aF374464.5
aF374092.5
aF380054.0
aF375034.0
aF373864.5
aF349042.0
aF368098.5
aF359099.5
aF356724.0
aF352660.0
aF363238.5
aF353703.0
aF353535.5
aF361368.0
aF360670.5
aF359580.5
aF357286.0
aF362854.0
aF355000.5
aF351892.5
aF354346.5
aF352478.0
aF346607.5
aF348489.0
aF342800.5
aF337947.5
aF337377.5
aF344684.0
aF347877.5
aF339674.0
aF343831.0
aF346988.5
aF343044.5
aF337619.0
aF349203.0
aF325325.5
aF332103.5
aF343954.0
aF338762.0
aF329383.0
aF329564.0
aF336030.5
aF326947.5
aF326013.0
aF335334.5
aF326385.5
aF335854.5
aF331048.5
aF328146.5
aF324688.5
aF334349.5
aF324644.5
aF348909.0
a.