(lp0
NaF1343031.0
aF1338100.5
aF1383207.0
aF1388059.0
aF1384700.5
aF1384350.5
aF1390218.5
aF1413262.0
aF1415558.0
aF1414651.5
aF1418259.0
aF1415191.0
aF1414329.5
aF1414152.5
aF1416293.5
aF1414545.0
aF1427493.5
aF1427978.0
aF1429364.5
aF1430559.5
aF1433147.5
aF1430827.0
aF1459262.5
aF1563595.0
aF1567478.0
aF1430920.0
aF1434389.0
aF1436265.5
aF1438428.0
aF1433113.5
aF1434860.0
aF1437290.5
aF1436893.5
aF1436568.0
aF1434043.0
aF1435307.0
aF1439762.0
aF1435436.0
aF1438368.0
aF1436010.5
aF1434994.5
aF1438036.0
aF1440028.0
aF1438306.5
aF1436939.5
aF1438066.5
aF1436590.0
aF1437066.5
aF1438604.5
aF1441582.5
aF1439017.5
aF1438724.0
aF1441259.5
aF1465979.5
aF1467993.5
aF1468161.5
aF1471981.5
aF1473439.5
aF1467379.5
aF1472425.0
aF1473662.0
aF1473317.5
aF1477508.0
aF1911177.0
aF1933180.0
aF2038410.5
aF1956691.5
aF1961532.0
aF1961733.5
aF1992700.0
aF2008408.5
aF1967813.5
aF1965320.0
aF1959090.0
aF1962274.5
aF1996984.0
aF2006300.5
aF1995581.5
aF1992891.5
aF2028458.0
aF2031408.5
aF2040930.5
aF2038595.5
aF2034799.5
aF2034456.0
aF2032293.0
aF2033065.0
aF2032462.0
aF2031339.0
aF2031093.5
aF2038098.5
aF2040963.5
aF2038026.0
aF2040650.0
aF2043518.5
aF2081165.5
aF2039291.5
aF2040812.0
aF2038637.0
aF2038328.0
aF2043223.5
aF2036381.5
aF2032851.5
aF2035713.0
aF2036366.5
aF2036098.5
aF2036590.0
aF2060937.5
aF2337858.0
aF2069124.0
aF2068463.0
aF2062396.0
aF2067751.5
aF2065015.5
aF2060525.5
aF2081372.5
aF2058076.5
aF2068514.5
aF2063640.0
aF2060851.0
aF2059447.0
aF2068603.5
aF2061975.0
aF2070050.0
aF2071632.5
aF2065393.0
aF2245927.0
aF2676732.0
aF2726141.5
aF2721374.5
aF2800790.0
aF2818719.5
aF2842855.5
aF2820752.5
aF2822307.5
aF2827045.5
aF2825926.0
aF2822379.0
aF2801485.0
aF2804355.0
aF2818587.5
aF2817460.0
aF2809880.5
aF2847157.0
aF2795955.5
aF2818932.5
aF2868562.5
aF2847681.0
aF2889936.0
aF2883089.5
aF2884599.0
aF2857459.5
aF2851193.5
aF2875202.5
aF2867075.5
aF2841732.5
aF2847723.5
aF2854681.5
aF2866127.0
aF2887554.5
aF2856757.5
aF2856218.5
aF2849420.0
aF2887119.5
aF2864037.5
aF2885841.0
aF2877665.0
aF2874018.0
aF2865944.0
aF2869219.0
aF2866002.5
aF2886232.0
aF2952204.5
aF2876573.0
aF2891424.5
aF2886090.5
aF2882181.5
aF2892640.0
aF2868910.0
aF3064760.0
aF2925641.0
aF2903345.5
aF2894381.0
aF2883359.0
aF2878360.0
aF2873437.5
aF2878785.5
aF2873613.5
aF2880619.0
aF2890222.5
aF2951613.5
aF3300344.5
aF3491913.0
aF3512888.5
aF3630691.0
aF3633324.0
aF3660864.0
aF3648652.5
aF3652699.5
aF3664507.5
aF3641763.5
aF3653861.0
aF3651468.0
aF3672629.5
aF3658052.5
aF3673597.5
aF3680264.0
aF3656579.5
aF3652201.0
aF3667415.5
aF3678102.5
aF3652756.5
aF3658941.5
aF3662445.5
aF3665454.5
aF3672586.5
aF3656354.0
aF3644329.5
aF3650909.5
aF3663464.5
aF3698940.5
aF3671043.5
aF3700057.5
aF3659313.0
aF3684126.5
aF3659558.5
aF3676702.5
aF3654666.0
aF3698431.5
aF3692197.5
aF3687762.0
aF3669001.0
aF3655371.5
aF3677839.0
aF3706719.5
aF3670669.5
aF3685029.5
aF3666862.0
aF3670882.0
aF3724849.0
aF3731589.0
aF3707417.0
aF3716003.0
aF3717796.5
aF3677914.5
aF3830582.5
aF3714469.5
aF3872241.0
aF3699781.5
aF3706429.5
aF3691914.5
aF3721835.5
aF3713007.5
aF3694653.0
aF3798463.5
aF4598325.0
a.