(lp0
NaF0.8890958079489195
aF0.990786187726756
aF1.5749087492251694
aF1.3100389459974198
aF1.7153327192404781
aF1.642188438761686
aF1.9805425301785196
aF1.7326443440434258
aF2.061465133364817
aF1.960460695819252
a.